target datalayout = "e-m:e-p270:32:32-p271:32:32-p272:64:64-i64:64-i128:128-f80:128-n8:16:32:64-S128"
target triple = "x86_64-unknown-linux-gnu"

%"struct.icu_75::FormattedStringBuilder::Field" = type { i8 }
%"class.icu_75::ConstrainedFieldPosition" = type <{ i64, i32, i32, i32, i32, i8, [7 x i8] }>

@_ZN6icu_75L15kUndefinedFieldE = internal constant %"struct.icu_75::FormattedStringBuilder::Field" zeroinitializer, align 1

; Function Attrs: mustprogress nounwind uwtable
define linkonce_odr noundef i32 @_ZNK6icu_7524ConstrainedFieldPosition8getLimitEv(ptr noundef nonnull align 8 dereferenceable(25) %this) #0 comdat align 2 {
entry:
  %this.addr = alloca ptr, align 8
  store ptr %this, ptr %this.addr, align 8
  %this1 = load ptr, ptr %this.addr, align 8
  %fLimit = getelementptr inbounds %"class.icu_75::ConstrainedFieldPosition", ptr %this1, i32 0, i32 3
  %0 = load i32, ptr %fLimit, align 8
  ret i32 %0
}

; Function Attrs: mustprogress nounwind uwtable
define linkonce_odr noundef i32 @_ZNK6icu_7524ConstrainedFieldPosition8getStartEv(ptr noundef nonnull align 8 dereferenceable(25) %this) #0 comdat align 2 {
entry:
  %this.addr = alloca ptr, align 8
  store ptr %this, ptr %this.addr, align 8
  %this1 = load ptr, ptr %this.addr, align 8
  %fStart = getelementptr inbounds %"class.icu_75::ConstrainedFieldPosition", ptr %this1, i32 0, i32 2
  %0 = load i32, ptr %fStart, align 4
  ret i32 %0
}

; Function Attrs: mustprogress nounwind uwtable
define linkonce_odr noundef i32 @_ZNK6icu_7524ConstrainedFieldPosition8getFieldEv(ptr noundef nonnull align 8 dereferenceable(25) %this) #0 comdat align 2 {
entry:
  %this.addr = alloca ptr, align 8
  store ptr %this, ptr %this.addr, align 8
  %this1 = load ptr, ptr %this.addr, align 8
  %fField = getelementptr inbounds %"class.icu_75::ConstrainedFieldPosition", ptr %this1, i32 0, i32 1
  %0 = load i32, ptr %fField, align 8
  ret i32 %0
}

; Function Attrs: mustprogress uwtable
define void @_ZNK6icu_7531FormattedValueStringBuilderImpl20getAllFieldPositionsERNS_28FieldPositionIteratorHandlerER10UErrorCode(ptr noundef nonnull align 8 dereferenceable(300) %this, ptr noundef nonnull align 8 dereferenceable(40) %fpih, ptr noundef nonnull align 4 dereferenceable(4) %status) #1 align 2 personality ptr @__gxx_personality_v0 {
entry:
  %this.addr = alloca ptr, align 8
  %fpih.addr = alloca ptr, align 8
  %status.addr = alloca ptr, align 8
  %cfpos = alloca %"class.icu_75::ConstrainedFieldPosition", align 8
  %agg.tmp = alloca %"struct.icu_75::FormattedStringBuilder::Field", align 1
  %exn.slot = alloca ptr, align 8
  %ehselector.slot = alloca i32, align 4
  store ptr %this, ptr %this.addr, align 8
  store ptr %fpih, ptr %fpih.addr, align 8
  store ptr %status, ptr %status.addr, align 8
  %this1 = load ptr, ptr %this.addr, align 8
  call void @_ZN6icu_7524ConstrainedFieldPositionC1Ev(ptr noundef nonnull align 8 dereferenceable(25) %cfpos)
  br label %while.cond

while.cond:                                       ; preds = %invoke.cont8, %entry
  call void @llvm.memcpy.p0.p0.i64(ptr align 1 %agg.tmp, ptr align 1 @_ZN6icu_75L15kUndefinedFieldE, i64 1, i1 false)
  %0 = load ptr, ptr %status.addr, align 8
  %coerce.dive = getelementptr inbounds %"struct.icu_75::FormattedStringBuilder::Field", ptr %agg.tmp, i32 0, i32 0
  %1 = load i8, ptr %coerce.dive, align 1
  %call = invoke noundef zeroext i1 @_ZNK6icu_7531FormattedValueStringBuilderImpl16nextPositionImplERNS_24ConstrainedFieldPositionENS_22FormattedStringBuilder5FieldER10UErrorCode(ptr noundef nonnull align 8 dereferenceable(300) %this1, ptr noundef nonnull align 8 dereferenceable(25) %cfpos, i8 %1, ptr noundef nonnull align 4 dereferenceable(4) %0)
          to label %invoke.cont unwind label %lpad

invoke.cont:                                      ; preds = %while.cond
  br i1 %call, label %while.body, label %while.end

while.body:                                       ; preds = %invoke.cont
  %2 = load ptr, ptr %fpih.addr, align 8
  %call3 = invoke noundef i32 @_ZNK6icu_7524ConstrainedFieldPosition8getFieldEv(ptr noundef nonnull align 8 dereferenceable(25) %cfpos)
          to label %invoke.cont2 unwind label %lpad

invoke.cont2:                                     ; preds = %while.body
  %call5 = invoke noundef i32 @_ZNK6icu_7524ConstrainedFieldPosition8getStartEv(ptr noundef nonnull align 8 dereferenceable(25) %cfpos)
          to label %invoke.cont4 unwind label %lpad

invoke.cont4:                                     ; preds = %invoke.cont2
  %call7 = invoke noundef i32 @_ZNK6icu_7524ConstrainedFieldPosition8getLimitEv(ptr noundef nonnull align 8 dereferenceable(25) %cfpos)
          to label %invoke.cont6 unwind label %lpad

invoke.cont6:                                     ; preds = %invoke.cont4
  %vtable = load ptr, ptr %2, align 8
  %vfn = getelementptr inbounds ptr, ptr %vtable, i64 2
  %3 = load ptr, ptr %vfn, align 8
  invoke void %3(ptr noundef nonnull align 8 dereferenceable(40) %2, i32 noundef %call3, i32 noundef %call5, i32 noundef %call7)
          to label %invoke.cont8 unwind label %lpad

invoke.cont8:                                     ; preds = %invoke.cont6
  br label %while.cond, !llvm.loop !9

lpad:                                             ; preds = %invoke.cont6, %invoke.cont4, %invoke.cont2, %while.body, %while.cond
  %4 = landingpad { ptr, i32 }
          cleanup
  %5 = extractvalue { ptr, i32 } %4, 0
  store ptr %5, ptr %exn.slot, align 8
  %6 = extractvalue { ptr, i32 } %4, 1
  store i32 %6, ptr %ehselector.slot, align 4
  call void @_ZN6icu_7524ConstrainedFieldPositionD1Ev(ptr noundef nonnull align 8 dereferenceable(25) %cfpos) #8
  br label %eh.resume

while.end:                                        ; preds = %invoke.cont
  call void @_ZN6icu_7524ConstrainedFieldPositionD1Ev(ptr noundef nonnull align 8 dereferenceable(25) %cfpos) #8
  ret void

eh.resume:                                        ; preds = %lpad
  %exn = load ptr, ptr %exn.slot, align 8
  %sel = load i32, ptr %ehselector.slot, align 4
  %lpad.val = insertvalue { ptr, i32 } poison, ptr %exn, 0
  %lpad.val9 = insertvalue { ptr, i32 } %lpad.val, i32 %sel, 1
  resume { ptr, i32 } %lpad.val9
}