; Function Attrs: mustprogress uwtable
define void @_ZNK6icu_7531FormattedValueStringBuilderImpl20getAllFieldPositionsERNS_28FieldPositionIteratorHandlerER10UErrorCode(ptr noundef nonnull align 8 dereferenceable(300) %this, ptr noundef nonnull align 8 dereferenceable(40) %fpih, ptr nocapture noundef nonnull readnone align 4 dereferenceable(4) %status) local_unnamed_addr #1 align 2 personality ptr @__gxx_personality_v0 {
entry:
  %cfpos = alloca %"class.icu_75::ConstrainedFieldPosition", align 8
  call void @_ZN6icu_7524ConstrainedFieldPositionC1Ev(ptr noundef nonnull align 8 dereferenceable(25) %cfpos)
  %fField.i = getelementptr inbounds i8, ptr %cfpos, i64 8
  %fStart.i = getelementptr inbounds i8, ptr %cfpos, i64 12
  %fLimit.i = getelementptr inbounds i8, ptr %cfpos, i64 16
  br label %while.cond

while.cond:                                       ; preds = %while.body, %entry
  %call = invoke noundef zeroext i1 @_ZNK6icu_7531FormattedValueStringBuilderImpl16nextPositionImplERNS_24ConstrainedFieldPositionENS_22FormattedStringBuilder5FieldER10UErrorCode(ptr noundef nonnull align 8 dereferenceable(300) %this, ptr noundef nonnull align 8 dereferenceable(25) %cfpos, i8 0, ptr nonnull align 4 poison)
          to label %invoke.cont unwind label %lpad

invoke.cont:                                      ; preds = %while.cond
  br i1 %call, label %while.body, label %while.end

while.body:                                       ; preds = %invoke.cont
  %0 = load i32, ptr %fField.i, align 8
  %1 = load i32, ptr %fStart.i, align 4
  %2 = load i32, ptr %fLimit.i, align 8
  %vtable = load ptr, ptr %fpih, align 8
  %vfn = getelementptr inbounds i8, ptr %vtable, i64 16
  %3 = load ptr, ptr %vfn, align 8
  invoke void %3(ptr noundef nonnull align 8 dereferenceable(40) %fpih, i32 noundef %0, i32 noundef %1, i32 noundef %2)
          to label %while.cond unwind label %lpad, !llvm.loop !9

lpad:                                             ; preds = %while.body, %while.cond
  %4 = landingpad { ptr, i32 }
          cleanup
  call void @_ZN6icu_7524ConstrainedFieldPositionD1Ev(ptr noundef nonnull align 8 dereferenceable(25) %cfpos) #9
  resume { ptr, i32 } %4

while.end:                                        ; preds = %invoke.cont
  call void @_ZN6icu_7524ConstrainedFieldPositionD1Ev(ptr noundef nonnull align 8 dereferenceable(25) %cfpos) #9
  ret void
}